target datalayout = "e-m:e-p270:32:32-p271:32:32-p272:64:64-i64:64-i128:128-f80:128-n8:16:32:64-S128"
target triple = "x86_64-pc-linux-gnu"

%struct.SDL_Pen = type { i32, ptr, %struct.SDL_PenInfo, [7 x float], float, float, i32, ptr }
%struct.SDL_PenInfo = type { i32, float, i32, i32, i32 }
%union.SDL_Event = type { %struct.SDL_MouseWheelEvent, [72 x i8] }
%struct.SDL_MouseWheelEvent = type { i32, i32, i64, i32, i32, float, float, i32, float, float, i32, i32 }
%struct.SDL_PenTouchEvent = type { i32, i32, i64, i32, i32, i32, float, float, i8, i8 }
%struct.SDL_Window = type { i32, ptr, ptr, i32, i32, i32, i32, i32, i32, i32, i32, float, float, i32, i32, i64, i64, float, i8, i8, i32, i32, %struct.SDL_Rect, %struct.SDL_Rect, %struct.SDL_Rect, i8, i8, i8, %struct.SDL_DisplayMode, %struct.SDL_DisplayMode, %struct.SDL_HDROutputProperties, float, ptr, i8, i8, i8, i8, i8, i8, i8, i8, i8, i32, i32, i32, i32, %struct.SDL_Rect, i32, i8, %struct.SDL_Rect, i32, %struct.SDL_Rect, ptr, ptr, i32, float, i32, i32, ptr, ptr, ptr, ptr, ptr, ptr, ptr, ptr, ptr }
%struct.SDL_DisplayMode = type { i32, i32, i32, i32, float, float, i32, i32, ptr }
%struct.SDL_HDROutputProperties = type { float, float }
%struct.SDL_Rect = type { i32, i32, i32, i32 }
%struct.SDL_Mouse = type { ptr, ptr, ptr, ptr, ptr, ptr, ptr, ptr, ptr, ptr, ptr, ptr, ptr, ptr, i8, float, float, ptr, float, float, float, float, float, float, float, float, double, double, i8, i8, i8, i8, i8, i8, i8, i8, i64, i8, float, i8, float, i8, i32, i32, i8, i8, i8, i8, i8, i8, i8, i8, i8, ptr, i32, ptr, ptr, ptr, ptr, i8, ptr }

@pen_device_rwlock = internal global ptr null, align 8
@pen_device_count = internal global i32 0, align 4
@pen_devices = internal global ptr null, align 8
@pen_touching = internal global i32 0, align 4
@.str.1 = private unnamed_addr constant [24 x i8] c"Invalid pen instance ID\00", align 1

; Function Attrs: nounwind uwtable
define internal ptr @FindPenByInstanceId(i32 noundef %0) #0 {
  %2 = alloca ptr, align 8
  %3 = alloca i32, align 4
  %4 = alloca i32, align 4
  %5 = alloca i32, align 4
  store i32 %0, ptr %3, align 4
  %6 = load i32, ptr %3, align 4
  %7 = icmp ne i32 %6, 0
  br i1 %7, label %8, label %35

8:                                                ; preds = %1
  call void @llvm.lifetime.start.p0(i64 4, ptr %4) #6
  store i32 0, ptr %4, align 4
  br label %9

9:                                                ; preds = %29, %8
  %10 = load i32, ptr %4, align 4
  %11 = load i32, ptr @pen_device_count, align 4
  %12 = icmp slt i32 %10, %11
  br i1 %12, label %14, label %13

13:                                               ; preds = %9
  store i32 2, ptr %5, align 4
  br label %32

14:                                               ; preds = %9
  %15 = load ptr, ptr @pen_devices, align 8
  %16 = load i32, ptr %4, align 4
  %17 = sext i32 %16 to i64
  %18 = getelementptr inbounds %struct.SDL_Pen, ptr %15, i64 %17
  %19 = getelementptr inbounds nuw %struct.SDL_Pen, ptr %18, i32 0, i32 0
  %20 = load i32, ptr %19, align 8
  %21 = load i32, ptr %3, align 4
  %22 = icmp eq i32 %20, %21
  br i1 %22, label %23, label %28

23:                                               ; preds = %14
  %24 = load ptr, ptr @pen_devices, align 8
  %25 = load i32, ptr %4, align 4
  %26 = sext i32 %25 to i64
  %27 = getelementptr inbounds %struct.SDL_Pen, ptr %24, i64 %26
  store ptr %27, ptr %2, align 8
  store i32 1, ptr %5, align 4
  br label %32

28:                                               ; preds = %14
  br label %29

29:                                               ; preds = %28
  %30 = load i32, ptr %4, align 4
  %31 = add nsw i32 %30, 1
  store i32 %31, ptr %4, align 4
  br label %9, !llvm.loop !7

32:                                               ; preds = %23, %13
  call void @llvm.lifetime.end.p0(i64 4, ptr %4) #6
  %33 = load i32, ptr %5, align 4
  switch i32 %33, label %39 [
    i32 2, label %34
    i32 1, label %37
  ]

34:                                               ; preds = %32
  br label %35

35:                                               ; preds = %34, %1
  %36 = call zeroext i1 (ptr, ...) @SDL_SetError_REAL(ptr noundef @.str.1)
  store ptr null, ptr %2, align 8
  br label %37

37:                                               ; preds = %35, %32
  %38 = load ptr, ptr %2, align 8
  ret ptr %38

39:                                               ; preds = %32
  unreachable
}

; Function Attrs: nounwind uwtable
define hidden void @SDL_SendPenTouch(i64 noundef %0, i32 noundef %1, ptr noundef %2, i1 noundef zeroext %3, i1 noundef zeroext %4) #0 {
  %6 = alloca i64, align 8
  %7 = alloca i32, align 4
  %8 = alloca ptr, align 8
  %9 = alloca i8, align 1
  %10 = alloca i8, align 1
  %11 = alloca i8, align 1
  %12 = alloca i32, align 4
  %13 = alloca float, align 4
  %14 = alloca float, align 4
  %15 = alloca ptr, align 8
  %16 = alloca i32, align 4
  %17 = alloca %union.SDL_Event, align 8
  %18 = alloca ptr, align 8
  %19 = alloca i32, align 4
  %20 = alloca float, align 4
  %21 = alloca float, align 4
  store i64 %0, ptr %6, align 8
  store i32 %1, ptr %7, align 4
  store ptr %2, ptr %8, align 8
  %22 = zext i1 %3 to i8
  store i8 %22, ptr %9, align 1
  %23 = zext i1 %4 to i8
  store i8 %23, ptr %10, align 1
  call void @llvm.lifetime.start.p0(i64 1, ptr %11) #6
  store i8 0, ptr %11, align 1
  call void @llvm.lifetime.start.p0(i64 4, ptr %12) #6
  store i32 0, ptr %12, align 4
  call void @llvm.lifetime.start.p0(i64 4, ptr %13) #6
  store float 0.000000e+00, ptr %13, align 4
  call void @llvm.lifetime.start.p0(i64 4, ptr %14) #6
  store float 0.000000e+00, ptr %14, align 4
  %24 = load ptr, ptr @pen_device_rwlock, align 8
  call void @SDL_LockRWLockForReading_REAL(ptr noundef %24)
  call void @llvm.lifetime.start.p0(i64 8, ptr %15) #6
  %25 = load i32, ptr %7, align 4
  %26 = call ptr @FindPenByInstanceId(i32 noundef %25)
  store ptr %26, ptr %15, align 8
  %27 = load ptr, ptr %15, align 8
  %28 = icmp ne ptr %27, null
  br i1 %28, label %29, label %84

29:                                               ; preds = %5
  %30 = load ptr, ptr %15, align 8
  %31 = getelementptr inbounds nuw %struct.SDL_Pen, ptr %30, i32 0, i32 6
  %32 = load i32, ptr %31, align 8
  store i32 %32, ptr %12, align 4
  %33 = load ptr, ptr %15, align 8
  %34 = getelementptr inbounds nuw %struct.SDL_Pen, ptr %33, i32 0, i32 4
  %35 = load float, ptr %34, align 8
  store float %35, ptr %13, align 4
  %36 = load ptr, ptr %15, align 8
  %37 = getelementptr inbounds nuw %struct.SDL_Pen, ptr %36, i32 0, i32 5
  %38 = load float, ptr %37, align 4
  store float %38, ptr %14, align 4
  %39 = load i8, ptr %10, align 1, !range !9, !noundef !10
  %40 = trunc i8 %39 to i1
  br i1 %40, label %41, label %48

41:                                               ; preds = %29
  %42 = load i32, ptr %12, align 4
  %43 = and i32 %42, 1
  %44 = icmp eq i32 %43, 0
  br i1 %44, label %45, label %48

45:                                               ; preds = %41
  %46 = load i32, ptr %12, align 4
  %47 = or i32 %46, 1
  store i32 %47, ptr %12, align 4
  store i8 1, ptr %11, align 1
  br label %59

48:                                               ; preds = %41, %29
  %49 = load i8, ptr %10, align 1, !range !9, !noundef !10
  %50 = trunc i8 %49 to i1
  br i1 %50, label %58, label %51

51:                                               ; preds = %48
  %52 = load i32, ptr %12, align 4
  %53 = and i32 %52, 1
  %54 = icmp ne i32 %53, 0
  br i1 %54, label %55, label %58

55:                                               ; preds = %51
  %56 = load i32, ptr %12, align 4
  %57 = and i32 %56, -2
  store i32 %57, ptr %12, align 4
  store i8 1, ptr %11, align 1
  br label %58

58:                                               ; preds = %55, %51, %48
  br label %59

59:                                               ; preds = %58, %45
  %60 = load i8, ptr %9, align 1, !range !9, !noundef !10
  %61 = trunc i8 %60 to i1
  br i1 %61, label %62, label %69

62:                                               ; preds = %59
  %63 = load i32, ptr %12, align 4
  %64 = and i32 %63, 1073741824
  %65 = icmp eq i32 %64, 0
  br i1 %65, label %66, label %69

66:                                               ; preds = %62
  %67 = load i32, ptr %12, align 4
  %68 = or i32 %67, 1073741824
  store i32 %68, ptr %12, align 4
  store i8 1, ptr %11, align 1
  br label %80

69:                                               ; preds = %62, %59
  %70 = load i8, ptr %9, align 1, !range !9, !noundef !10
  %71 = trunc i8 %70 to i1
  br i1 %71, label %79, label %72

72:                                               ; preds = %69
  %73 = load i32, ptr %12, align 4
  %74 = and i32 %73, 1073741824
  %75 = icmp ne i32 %74, 0
  br i1 %75, label %76, label %79

76:                                               ; preds = %72
  %77 = load i32, ptr %12, align 4
  %78 = and i32 %77, -1073741825
  store i32 %78, ptr %12, align 4
  store i8 1, ptr %11, align 1
  br label %79

79:                                               ; preds = %76, %72, %69
  br label %80

80:                                               ; preds = %79, %66
  %81 = load i32, ptr %12, align 4
  %82 = load ptr, ptr %15, align 8
  %83 = getelementptr inbounds nuw %struct.SDL_Pen, ptr %82, i32 0, i32 6
  store i32 %81, ptr %83, align 8
  br label %84

84:                                               ; preds = %80, %5
  %85 = load ptr, ptr @pen_device_rwlock, align 8
  call void @SDL_UnlockRWLock_REAL(ptr noundef %85)
  %86 = load i8, ptr %11, align 1, !range !9, !noundef !10
  %87 = trunc i8 %86 to i1
  br i1 %87, label %88, label %216

88:                                               ; preds = %84
  call void @llvm.lifetime.start.p0(i64 4, ptr %16) #6
  %89 = load i8, ptr %10, align 1, !range !9, !noundef !10
  %90 = trunc i8 %89 to i1
  %91 = select i1 %90, i32 4866, i32 4867
  store i32 %91, ptr %16, align 4
  %92 = load i32, ptr %16, align 4
  %93 = call zeroext i1 @SDL_EventEnabled_REAL(i32 noundef %92)
  br i1 %93, label %94, label %126

94:                                               ; preds = %88
  call void @llvm.lifetime.start.p0(i64 128, ptr %17) #6
  call void @llvm.memset.p0.i64(ptr align 8 %17, i8 0, i64 128, i1 false)
  %95 = load i32, ptr %16, align 4
  %96 = getelementptr inbounds nuw %struct.SDL_PenTouchEvent, ptr %17, i32 0, i32 0
  store i32 %95, ptr %96, align 8
  %97 = load i64, ptr %6, align 8
  %98 = getelementptr inbounds nuw %struct.SDL_PenTouchEvent, ptr %17, i32 0, i32 2
  store i64 %97, ptr %98, align 8
  %99 = load ptr, ptr %8, align 8
  %100 = icmp ne ptr %99, null
  br i1 %100, label %101, label %105

101:                                              ; preds = %94
  %102 = load ptr, ptr %8, align 8
  %103 = getelementptr inbounds nuw %struct.SDL_Window, ptr %102, i32 0, i32 0
  %104 = load i32, ptr %103, align 8
  br label %106

105:                                              ; preds = %94
  br label %106

106:                                              ; preds = %105, %101
  %107 = phi i32 [ %104, %101 ], [ 0, %105 ]
  %108 = getelementptr inbounds nuw %struct.SDL_PenTouchEvent, ptr %17, i32 0, i32 3
  store i32 %107, ptr %108, align 8
  %109 = load i32, ptr %7, align 4
  %110 = getelementptr inbounds nuw %struct.SDL_PenTouchEvent, ptr %17, i32 0, i32 4
  store i32 %109, ptr %110, align 4
  %111 = load i32, ptr %12, align 4
  %112 = getelementptr inbounds nuw %struct.SDL_PenTouchEvent, ptr %17, i32 0, i32 5
  store i32 %111, ptr %112, align 8
  %113 = load float, ptr %13, align 4
  %114 = getelementptr inbounds nuw %struct.SDL_PenTouchEvent, ptr %17, i32 0, i32 6
  store float %113, ptr %114, align 4
  %115 = load float, ptr %14, align 4
  %116 = getelementptr inbounds nuw %struct.SDL_PenTouchEvent, ptr %17, i32 0, i32 7
  store float %115, ptr %116, align 8
  %117 = load i8, ptr %9, align 1, !range !9, !noundef !10
  %118 = trunc i8 %117 to i1
  %119 = getelementptr inbounds nuw %struct.SDL_PenTouchEvent, ptr %17, i32 0, i32 8
  %120 = zext i1 %118 to i8
  store i8 %120, ptr %119, align 4
  %121 = load i8, ptr %10, align 1, !range !9, !noundef !10
  %122 = trunc i8 %121 to i1
  %123 = getelementptr inbounds nuw %struct.SDL_PenTouchEvent, ptr %17, i32 0, i32 9
  %124 = zext i1 %122 to i8
  store i8 %124, ptr %123, align 1
  %125 = call zeroext i1 @SDL_PushEvent_REAL(ptr noundef %17)
  call void @llvm.lifetime.end.p0(i64 128, ptr %17) #6
  br label %126

126:                                              ; preds = %106, %88
  call void @llvm.lifetime.start.p0(i64 8, ptr %18) #6
  %127 = call ptr @SDL_GetMouse()
  store ptr %127, ptr %18, align 8
  %128 = load ptr, ptr %18, align 8
  %129 = icmp ne ptr %128, null
  br i1 %129, label %130, label %200

130:                                              ; preds = %126
  %131 = load ptr, ptr %8, align 8
  %132 = icmp ne ptr %131, null
  br i1 %132, label %133, label %200

133:                                              ; preds = %130
  %134 = load ptr, ptr %18, align 8
  %135 = getelementptr inbounds nuw %struct.SDL_Mouse, ptr %134, i32 0, i32 46
  %136 = load i8, ptr %135, align 2, !range !9, !noundef !10
  %137 = trunc i8 %136 to i1
  br i1 %137, label %138, label %161

138:                                              ; preds = %133
  %139 = load i8, ptr %10, align 1, !range !9, !noundef !10
  %140 = trunc i8 %139 to i1
  br i1 %140, label %141, label %152

141:                                              ; preds = %138
  %142 = load i32, ptr @pen_touching, align 4
  %143 = icmp ne i32 %142, 0
  br i1 %143, label %151, label %144

144:                                              ; preds = %141
  %145 = load i64, ptr %6, align 8
  %146 = load ptr, ptr %8, align 8
  %147 = load float, ptr %13, align 4
  %148 = load float, ptr %14, align 4
  call void @SDL_SendMouseMotion(i64 noundef %145, ptr noundef %146, i32 noundef -2, i1 noundef zeroext false, float noundef %147, float noundef %148)
  %149 = load i64, ptr %6, align 8
  %150 = load ptr, ptr %8, align 8
  call void @SDL_SendMouseButton(i64 noundef %149, ptr noundef %150, i32 noundef -2, i8 noundef zeroext 1, i1 noundef zeroext true)
  br label %151

151:                                              ; preds = %144, %141
  br label %160

152:                                              ; preds = %138
  %153 = load i32, ptr @pen_touching, align 4
  %154 = load i32, ptr %7, align 4
  %155 = icmp eq i32 %153, %154
  br i1 %155, label %156, label %159

156:                                              ; preds = %152
  %157 = load i64, ptr %6, align 8
  %158 = load ptr, ptr %8, align 8
  call void @SDL_SendMouseButton(i64 noundef %157, ptr noundef %158, i32 noundef -2, i8 noundef zeroext 1, i1 noundef zeroext false)
  br label %159

159:                                              ; preds = %156, %152
  br label %160

160:                                              ; preds = %159, %151
  br label %161

161:                                              ; preds = %160, %133
  %162 = load ptr, ptr %18, align 8
  %163 = getelementptr inbounds nuw %struct.SDL_Mouse, ptr %162, i32 0, i32 47
  %164 = load i8, ptr %163, align 1, !range !9, !noundef !10
  %165 = trunc i8 %164 to i1
  br i1 %165, label %166, label %199

166:                                              ; preds = %161
  call void @llvm.lifetime.start.p0(i64 4, ptr %19) #6
  %167 = load i8, ptr %10, align 1, !range !9, !noundef !10
  %168 = trunc i8 %167 to i1
  %169 = select i1 %168, i32 1792, i32 1793
  store i32 %169, ptr %19, align 4
  call void @llvm.lifetime.start.p0(i64 4, ptr %20) #6
  %170 = load float, ptr %13, align 4
  %171 = load ptr, ptr %8, align 8
  %172 = getelementptr inbounds nuw %struct.SDL_Window, ptr %171, i32 0, i32 5
  %173 = load i32, ptr %172, align 8
  %174 = sitofp i32 %173 to float
  %175 = fdiv float %170, %174
  store float %175, ptr %20, align 4
  call void @llvm.lifetime.start.p0(i64 4, ptr %21) #6
  %176 = load float, ptr %14, align 4
  %177 = load ptr, ptr %8, align 8
  %178 = getelementptr inbounds nuw %struct.SDL_Window, ptr %177, i32 0, i32 6
  %179 = load i32, ptr %178, align 4
  %180 = sitofp i32 %179 to float
  %181 = fdiv float %176, %180
  store float %181, ptr %21, align 4
  %182 = load i32, ptr @pen_touching, align 4
  %183 = icmp ne i32 %182, 0
  br i1 %183, label %184, label %188

184:                                              ; preds = %166
  %185 = load i32, ptr @pen_touching, align 4
  %186 = load i32, ptr %7, align 4
  %187 = icmp eq i32 %185, %186
  br i1 %187, label %188, label %198

188:                                              ; preds = %184, %166
  %189 = load i64, ptr %6, align 8
  %190 = load ptr, ptr %8, align 8
  %191 = load i32, ptr %19, align 4
  %192 = load float, ptr %20, align 4
  %193 = load float, ptr %21, align 4
  %194 = load ptr, ptr %15, align 8
  %195 = getelementptr inbounds nuw %struct.SDL_Pen, ptr %194, i32 0, i32 3
  %196 = getelementptr inbounds [7 x float], ptr %195, i64 0, i64 0
  %197 = load float, ptr %196, align 4
  call void @SDL_SendTouch(i64 noundef %189, i64 noundef -2, i64 noundef 1, ptr noundef %190, i32 noundef %191, float noundef %192, float noundef %193, float noundef %197)
  br label %198

198:                                              ; preds = %188, %184
  call void @llvm.lifetime.end.p0(i64 4, ptr %21) #6
  call void @llvm.lifetime.end.p0(i64 4, ptr %20) #6
  call void @llvm.lifetime.end.p0(i64 4, ptr %19) #6
  br label %199

199:                                              ; preds = %198, %161
  br label %200

200:                                              ; preds = %199, %130, %126
  %201 = load i8, ptr %10, align 1, !range !9, !noundef !10
  %202 = trunc i8 %201 to i1
  br i1 %202, label %203, label %209

203:                                              ; preds = %200
  %204 = load i32, ptr @pen_touching, align 4
  %205 = icmp ne i32 %204, 0
  br i1 %205, label %208, label %206

206:                                              ; preds = %203
  %207 = load i32, ptr %7, align 4
  store i32 %207, ptr @pen_touching, align 4
  br label %208

208:                                              ; preds = %206, %203
  br label %215

209:                                              ; preds = %200
  %210 = load i32, ptr @pen_touching, align 4
  %211 = load i32, ptr %7, align 4
  %212 = icmp eq i32 %210, %211
  br i1 %212, label %213, label %214

213:                                              ; preds = %209
  store i32 0, ptr @pen_touching, align 4
  br label %214

214:                                              ; preds = %213, %209
  br label %215

215:                                              ; preds = %214, %208
  call void @llvm.lifetime.end.p0(i64 8, ptr %18) #6
  call void @llvm.lifetime.end.p0(i64 4, ptr %16) #6
  br label %216

216:                                              ; preds = %215, %84
  call void @llvm.lifetime.end.p0(i64 8, ptr %15) #6
  call void @llvm.lifetime.end.p0(i64 4, ptr %14) #6
  call void @llvm.lifetime.end.p0(i64 4, ptr %13) #6
  call void @llvm.lifetime.end.p0(i64 4, ptr %12) #6
  call void @llvm.lifetime.end.p0(i64 1, ptr %11) #6
  ret void
}