; Function Attrs: nounwind uwtable
define hidden void @SDL_SendPenTouch(i64 noundef %0, i32 noundef %1, ptr noundef %2, i1 noundef zeroext %3, i1 noundef zeroext %4) local_unnamed_addr #0 {
  %6 = alloca %union.SDL_Event, align 8
  %7 = zext i1 %3 to i8
  %8 = zext i1 %4 to i8
  %9 = load ptr, ptr @pen_device_rwlock, align 8
  tail call void @SDL_LockRWLockForReading_REAL(ptr noundef %9) #8
  %.not.i = icmp eq i32 %1, 0
  br i1 %.not.i, label %.thread, label %.preheader.i

.preheader.i:                                     ; preds = %5
  %10 = load i32, ptr @pen_device_count, align 4
  %11 = icmp sgt i32 %10, 0
  br i1 %11, label %.lr.ph.i, label %.thread

.lr.ph.i:                                         ; preds = %.preheader.i
  %12 = load ptr, ptr @pen_devices, align 8
  %wide.trip.count.i = zext nneg i32 %10 to i64
  br label %14

13:                                               ; preds = %14
  %indvars.iv.next.i = add nuw nsw i64 %indvars.iv.i, 1
  %exitcond.not.i = icmp eq i64 %indvars.iv.next.i, %wide.trip.count.i
  br i1 %exitcond.not.i, label %.thread, label %14, !llvm.loop !7

14:                                               ; preds = %13, %.lr.ph.i
  %indvars.iv.i = phi i64 [ 0, %.lr.ph.i ], [ %indvars.iv.next.i, %13 ]
  %15 = getelementptr inbounds nuw %struct.SDL_Pen, ptr %12, i64 %indvars.iv.i
  %16 = load i32, ptr %15, align 8
  %17 = icmp eq i32 %16, %1
  br i1 %17, label %FindPenByInstanceId.exit, label %13

.thread:                                          ; preds = %13, %.preheader.i, %5
  %18 = tail call zeroext i1 (ptr, ...) @SDL_SetError_REAL(ptr noundef nonnull @.str.1) #8
  %19 = load ptr, ptr @pen_device_rwlock, align 8
  tail call void @SDL_UnlockRWLock_REAL(ptr noundef %19) #8
  br label %93

FindPenByInstanceId.exit:                         ; preds = %14
  %20 = getelementptr inbounds nuw i8, ptr %15, i64 72
  %21 = load i32, ptr %20, align 8
  %22 = getelementptr inbounds nuw i8, ptr %15, i64 64
  %23 = load float, ptr %22, align 8
  %24 = getelementptr inbounds nuw i8, ptr %15, i64 68
  %25 = load float, ptr %24, align 4
  %26 = and i32 %21, -2
  %masksel = zext i1 %4 to i32
  %.162 = or disjoint i32 %26, %masksel
  %27 = and i32 %21, 1073741824
  %28 = icmp eq i32 %27, 0
  %or.cond81 = select i1 %3, i1 %28, i1 false
  br i1 %or.cond81, label %.thread95, label %31

.thread95:                                        ; preds = %FindPenByInstanceId.exit
  %29 = or disjoint i32 %.162, 1073741824
  store i32 %29, ptr %20, align 8
  %30 = load ptr, ptr @pen_device_rwlock, align 8
  tail call void @SDL_UnlockRWLock_REAL(ptr noundef %30) #8
  br label %36

31:                                               ; preds = %FindPenByInstanceId.exit
  %32 = and i32 %21, 1
  %33 = icmp eq i32 %32, 0
  %.1.not = xor i1 %4, %33
  %or.cond82 = select i1 %3, i1 true, i1 %28
  %34 = and i32 %.162, -1073741825
  %spec.select85 = select i1 %3, i32 %.162, i32 %34
  store i32 %spec.select85, ptr %20, align 8
  %.not = select i1 %or.cond82, i1 %.1.not, i1 false
  %35 = load ptr, ptr @pen_device_rwlock, align 8
  tail call void @SDL_UnlockRWLock_REAL(ptr noundef %35) #8
  br i1 %.not, label %93, label %36

36:                                               ; preds = %.thread95, %31
  %.26398 = phi i32 [ %29, %.thread95 ], [ %spec.select85, %31 ]
  %37 = select i1 %4, i32 4866, i32 4867
  %38 = tail call zeroext i1 @SDL_EventEnabled_REAL(i32 noundef %37) #8
  br i1 %38, label %39, label %53

39:                                               ; preds = %36
  call void @llvm.lifetime.start.p0(i64 128, ptr nonnull %6) #8
  call void @llvm.memset.p0.i64(ptr noundef nonnull align 8 dereferenceable(128) %6, i8 0, i64 128, i1 false)
  store i32 %37, ptr %6, align 8
  %40 = getelementptr inbounds nuw i8, ptr %6, i64 8
  store i64 %0, ptr %40, align 8
  %.not73 = icmp eq ptr %2, null
  br i1 %.not73, label %43, label %41

41:                                               ; preds = %39
  %42 = load i32, ptr %2, align 8
  br label %43

43:                                               ; preds = %39, %41
  %44 = phi i32 [ %42, %41 ], [ 0, %39 ]
  %45 = getelementptr inbounds nuw i8, ptr %6, i64 16
  store i32 %44, ptr %45, align 8
  %46 = getelementptr inbounds nuw i8, ptr %6, i64 20
  store i32 %1, ptr %46, align 4
  %47 = getelementptr inbounds nuw i8, ptr %6, i64 24
  store i32 %.26398, ptr %47, align 8
  %48 = getelementptr inbounds nuw i8, ptr %6, i64 28
  store float %23, ptr %48, align 4
  %49 = getelementptr inbounds nuw i8, ptr %6, i64 32
  store float %25, ptr %49, align 8
  %50 = getelementptr inbounds nuw i8, ptr %6, i64 36
  store i8 %7, ptr %50, align 4
  %51 = getelementptr inbounds nuw i8, ptr %6, i64 37
  store i8 %8, ptr %51, align 1
  %52 = call zeroext i1 @SDL_PushEvent_REAL(ptr noundef nonnull %6) #8
  call void @llvm.lifetime.end.p0(i64 128, ptr nonnull %6) #8
  br label %53

53:                                               ; preds = %43, %36
  %54 = call ptr @SDL_GetMouse() #8
  %55 = icmp ne ptr %54, null
  %56 = icmp ne ptr %2, null
  %or.cond = and i1 %56, %55
  br i1 %or.cond, label %57, label %86

57:                                               ; preds = %53
  %58 = getelementptr inbounds nuw i8, ptr %54, i64 230
  %59 = load i8, ptr %58, align 2, !range !9, !noundef !10
  %60 = trunc nuw i8 %59 to i1
  br i1 %60, label %61, label %67

61:                                               ; preds = %57
  %62 = load i32, ptr @pen_touching, align 4
  br i1 %4, label %63, label %65

63:                                               ; preds = %61
  %.not74 = icmp eq i32 %62, 0
  br i1 %.not74, label %64, label %67

64:                                               ; preds = %63
  call void @SDL_SendMouseMotion(i64 noundef %0, ptr noundef nonnull %2, i32 noundef -2, i1 noundef zeroext false, float noundef %23, float noundef %25) #8
  br label %.sink.split

65:                                               ; preds = %61
  %66 = icmp eq i32 %62, %1
  br i1 %66, label %.sink.split, label %67

.sink.split:                                      ; preds = %65, %64
  call void @SDL_SendMouseButton(i64 noundef %0, ptr noundef nonnull %2, i32 noundef -2, i8 noundef zeroext 1, i1 noundef zeroext %4) #8
  br label %67

67:                                               ; preds = %.sink.split, %63, %65, %57
  %68 = getelementptr inbounds nuw i8, ptr %54, i64 231
  %69 = load i8, ptr %68, align 1, !range !9, !noundef !10
  %70 = trunc nuw i8 %69 to i1
  br i1 %70, label %71, label %86

71:                                               ; preds = %67
  %72 = load i32, ptr @pen_touching, align 4
  %.not75 = icmp eq i32 %72, 0
  %73 = icmp eq i32 %72, %1
  %or.cond83 = or i1 %.not75, %73
  br i1 %or.cond83, label %74, label %86

74:                                               ; preds = %71
  %75 = getelementptr inbounds nuw i8, ptr %2, i64 36
  %76 = load i32, ptr %75, align 4
  %77 = sitofp i32 %76 to float
  %78 = fdiv float %25, %77
  %79 = getelementptr inbounds nuw i8, ptr %2, i64 32
  %80 = load i32, ptr %79, align 8
  %81 = sitofp i32 %80 to float
  %82 = fdiv float %23, %81
  %83 = select i1 %4, i32 1792, i32 1793
  %84 = getelementptr inbounds nuw i8, ptr %15, i64 36
  %85 = load float, ptr %84, align 4
  call void @SDL_SendTouch(i64 noundef %0, i64 noundef -2, i64 noundef 1, ptr noundef nonnull %2, i32 noundef %83, float noundef %82, float noundef %78, float noundef %85) #8
  br label %86

86:                                               ; preds = %74, %71, %67, %53
  %87 = load i32, ptr @pen_touching, align 4
  br i1 %4, label %88, label %90

88:                                               ; preds = %86
  %.not76 = icmp eq i32 %87, 0
  br i1 %.not76, label %89, label %93

89:                                               ; preds = %88
  store i32 %1, ptr @pen_touching, align 4
  br label %93

90:                                               ; preds = %86
  %91 = icmp eq i32 %87, %1
  br i1 %91, label %92, label %93

92:                                               ; preds = %90
  store i32 0, ptr @pen_touching, align 4
  br label %93

93:                                               ; preds = %.thread, %89, %88, %92, %90, %31
  ret void
}